target datalayout = "e-m:e-p270:32:32-p271:32:32-p272:64:64-i64:64-i128:128-f80:128-n8:16:32:64-S128"
target triple = "x86_64-pc-linux-gnu"

%struct.wtap = type { ptr, ptr, i8, i32, i32, ptr, ptr, ptr, i32, ptr, ptr, ptr, ptr, ptr, ptr, ptr, ptr, ptr, ptr, i32, i32, ptr, ptr, ptr, ptr }
%struct.ngsniffer_t = type { i32, i32, i8, i32, i64, i32, %struct.ngsniffer_comp_stream_t, %struct.ngsniffer_comp_stream_t, ptr, ptr, ptr }
%struct.ngsniffer_comp_stream_t = type { ptr, i32, i32, i64, i64 }

; Function Attrs: null_pointer_is_valid sspstrong uwtable
define internal void @ngsniffer_close(ptr noundef %0) #0 {
  %2 = alloca ptr, align 8
  %3 = alloca ptr, align 8
  store ptr %0, ptr %2, align 8
  call void @llvm.lifetime.start.p0(i64 8, ptr %3) #14
  %4 = load ptr, ptr %2, align 8
  %5 = getelementptr inbounds nuw %struct.wtap, ptr %4, i32 0, i32 13
  %6 = load ptr, ptr %5, align 8
  store ptr %6, ptr %3, align 8
  %7 = load ptr, ptr %3, align 8
  %8 = getelementptr inbounds nuw %struct.ngsniffer_t, ptr %7, i32 0, i32 7
  %9 = getelementptr inbounds nuw %struct.ngsniffer_comp_stream_t, ptr %8, i32 0, i32 0
  %10 = load ptr, ptr %9, align 8
  call void @g_free(ptr noundef %10)
  %11 = load ptr, ptr %3, align 8
  %12 = getelementptr inbounds nuw %struct.ngsniffer_t, ptr %11, i32 0, i32 8
  %13 = load ptr, ptr %12, align 8
  call void @g_list_foreach(ptr noundef %13, ptr noundef @free_blob, ptr noundef null)
  %14 = load ptr, ptr %3, align 8
  %15 = getelementptr inbounds nuw %struct.ngsniffer_t, ptr %14, i32 0, i32 8
  %16 = load ptr, ptr %15, align 8
  call void @g_list_free(ptr noundef %16)
  call void @llvm.lifetime.end.p0(i64 8, ptr %3) #14
  ret void
}