; Function Attrs: null_pointer_is_valid sspstrong uwtable
define internal void @ngsniffer_close(ptr noundef readonly captures(none) %0) #0 {
  %2 = getelementptr inbounds nuw i8, ptr %0, i64 96
  %3 = load ptr, ptr %2, align 8
  %4 = getelementptr inbounds nuw i8, ptr %3, i64 64
  %5 = load ptr, ptr %4, align 8
  tail call void @g_free(ptr noundef %5)
  %6 = getelementptr inbounds nuw i8, ptr %3, i64 96
  %7 = load ptr, ptr %6, align 8
  tail call void @g_list_foreach(ptr noundef %7, ptr noundef nonnull @free_blob, ptr noundef null)
  %8 = load ptr, ptr %6, align 8
  tail call void @g_list_free(ptr noundef %8)
  ret void
}